; Function Attrs: mustprogress nounwind uwtable
define hidden void @_ZN16G1YoungCollector29wait_for_root_region_scanningEv(ptr nocapture noundef nonnull readonly align 8 dereferenceable(104) %0) local_unnamed_addr #0 align 2 {
  %2 = tail call { i64, i64 } @_ZN29CompositeElapsedCounterSource3nowEv() #18
  %3 = load ptr, ptr %0, align 8
  %4 = getelementptr inbounds i8, ptr %3, i64 1320
  %5 = load ptr, ptr %4, align 8
  %6 = tail call noundef zeroext i1 @_ZN16G1ConcurrentMark36wait_until_root_region_scan_finishedEv(ptr noundef nonnull align 8 dereferenceable(1849) %5) #18
  br i1 %6, label %7, label %15

7:                                                ; preds = %1
  %8 = extractvalue { i64, i64 } %2, 1
  %9 = extractvalue { i64, i64 } %2, 0
  %10 = tail call { i64, i64 } @_ZN29CompositeElapsedCounterSource3nowEv() #18
  %11 = extractvalue { i64, i64 } %10, 0
  %12 = extractvalue { i64, i64 } %10, 1
  %13 = sub nsw i64 %11, %9
  %14 = sub nsw i64 %12, %8
  br label %15

15:                                               ; preds = %7, %1
  %.sroa.3.0 = phi i64 [ %14, %7 ], [ 0, %1 ]
  %.sroa.01.0 = phi i64 [ %13, %7 ], [ 0, %1 ]
  %16 = load ptr, ptr %0, align 8
  %17 = getelementptr inbounds i8, ptr %16, i64 1064
  %18 = load ptr, ptr %17, align 8
  %19 = tail call noundef ptr @_ZNK8G1Policy11phase_timesEv(ptr noundef nonnull align 8 dereferenceable(552) %18) #18
  %20 = tail call noundef double @_ZN29CompositeElapsedCounterSource7secondsE7PairRepIllE(i64 %.sroa.01.0, i64 %.sroa.3.0) #18
  %21 = fmul double %20, 1.000000e+03
  %22 = getelementptr inbounds i8, ptr %19, i64 496
  store double %21, ptr %22, align 8
  ret void
}